target datalayout = "e-m:e-p270:32:32-p271:32:32-p272:64:64-i64:64-i128:128-f80:128-n8:16:32:64-S128"
target triple = "x86_64-pc-linux-gnu"

%class.Metadata = type { ptr }
%class.OopHandle = type { ptr }
%class.ciEnv = type <{ ptr, %class.Arena, ptr, ptr, ptr, ptr, %class.CHeapStringHolder, i8, [3 x i8], i32, i8, [3 x i8], i32, ptr, ptr, ptr, ptr, i32, [4 x i8], i64, i8, i8, i8, i8, i8, i8, i8, i8, ptr, ptr, ptr, ptr, ptr, ptr, ptr, ptr, ptr, [1025 x i8], [7 x i8] }>
%class.Arena = type { i8, i8, i64, ptr, ptr, ptr, ptr }
%class.CHeapStringHolder = type { ptr }
%class.constantPoolHandle = type { ptr, ptr }
%class.ConstantPool = type <{ %class.Metadata, ptr, ptr, ptr, ptr, ptr, i16, i16, i16, i16, i16, [2 x i8], i32, %union.anon.18, [4 x i8] }>
%union.anon.18 = type { i32 }
%class.ciConstant = type { i8, %union.anon.19 }
%union.anon.19 = type { i64 }
%union.jvalue = type { i64 }
%class.ConstantPoolCache = type { i32, ptr, %class.OopHandle, ptr, i64, ptr, ptr, ptr }
%class.anon.89 = type { i8 }
%class.Array.87 = type <{ i32, [1 x i16], [2 x i8] }>

@_ZN5ciEnv21_null_object_instanceE = hidden global ptr null, align 8

; Function Attrs: mustprogress nounwind uwtable
define linkonce_odr hidden noundef i64 @_ZZN5ArrayItE20base_offset_in_bytesEvENKUlvE_clEv(ptr noundef nonnull align 1 dereferenceable(1) %0) #1 comdat align 2 {
  %2 = alloca ptr, align 8
  %3 = alloca [8 x i8], align 16
  %4 = alloca ptr, align 8
  %5 = alloca ptr, align 8
  store ptr %0, ptr %2, align 8
  %6 = getelementptr inbounds [8 x i8], ptr %3, i64 0, i64 0
  store ptr %6, ptr %4, align 8
  %7 = load ptr, ptr %4, align 8
  %8 = getelementptr inbounds %class.Array.87, ptr %7, i32 0, i32 1
  store ptr %8, ptr %5, align 8
  %9 = load ptr, ptr %5, align 8
  %10 = getelementptr inbounds [8 x i8], ptr %3, i64 0, i64 0
  %11 = ptrtoint ptr %9 to i64
  %12 = ptrtoint ptr %10 to i64
  %13 = sub i64 %11, %12
  ret i64 %13
}

; Function Attrs: mustprogress nounwind uwtable
define linkonce_odr hidden noundef i32 @_ZN5ArrayItE20base_offset_in_bytesEv() #1 comdat align 2 {
  %1 = alloca %class.anon.89, align 1
  %2 = call noundef i64 @_ZZN5ArrayItE20base_offset_in_bytesEvENKUlvE_clEv(ptr noundef nonnull align 1 dereferenceable(1) %1)
  %3 = trunc i64 %2 to i32
  ret i32 %3
}

; Function Attrs: mustprogress nounwind uwtable
define linkonce_odr hidden noundef ptr @_ZNK5ArrayItE4dataEv(ptr noundef nonnull align 4 dereferenceable(6) %0) #1 comdat align 2 {
  %2 = alloca ptr, align 8
  store ptr %0, ptr %2, align 8
  %3 = load ptr, ptr %2, align 8
  %4 = call noundef i32 @_ZN5ArrayItE20base_offset_in_bytesEv()
  %5 = sext i32 %4 to i64
  %6 = getelementptr inbounds i8, ptr %3, i64 %5
  ret ptr %6
}

; Function Attrs: mustprogress nounwind uwtable
define linkonce_odr hidden noundef ptr @_ZNK17ConstantPoolCache13reference_mapEv(ptr noundef nonnull align 8 dereferenceable(64) %0) #1 comdat align 2 {
  %2 = alloca ptr, align 8
  store ptr %0, ptr %2, align 8
  %3 = load ptr, ptr %2, align 8
  %4 = getelementptr inbounds %class.ConstantPoolCache, ptr %3, i32 0, i32 3
  %5 = load ptr, ptr %4, align 8
  ret ptr %5
}

; Function Attrs: mustprogress nounwind uwtable
define linkonce_odr hidden void @_ZN10ciConstantC2Ed(ptr noundef nonnull align 8 dereferenceable(16) %0, double noundef %1) unnamed_addr #1 comdat align 2 {
  %3 = alloca ptr, align 8
  %4 = alloca double, align 8
  store ptr %0, ptr %3, align 8
  store double %1, ptr %4, align 8
  %5 = load ptr, ptr %3, align 8
  %6 = getelementptr inbounds %class.ciConstant, ptr %5, i32 0, i32 0
  store i8 7, ptr %6, align 8
  %7 = load double, ptr %4, align 8
  %8 = getelementptr inbounds %class.ciConstant, ptr %5, i32 0, i32 1
  store double %7, ptr %8, align 8
  ret void
}

; Function Attrs: mustprogress nounwind uwtable
define linkonce_odr hidden void @_ZN10ciConstantC2Ef(ptr noundef nonnull align 8 dereferenceable(16) %0, float noundef %1) unnamed_addr #1 comdat align 2 {
  %3 = alloca ptr, align 8
  %4 = alloca float, align 4
  store ptr %0, ptr %3, align 8
  store float %1, ptr %4, align 4
  %5 = load ptr, ptr %3, align 8
  %6 = getelementptr inbounds %class.ciConstant, ptr %5, i32 0, i32 0
  store i8 6, ptr %6, align 8
  %7 = load float, ptr %4, align 4
  %8 = getelementptr inbounds %class.ciConstant, ptr %5, i32 0, i32 1
  store float %7, ptr %8, align 8
  ret void
}

; Function Attrs: mustprogress nounwind uwtable
define linkonce_odr hidden void @_ZN10ciConstantC2El(ptr noundef nonnull align 8 dereferenceable(16) %0, i64 noundef %1) unnamed_addr #1 comdat align 2 {
  %3 = alloca ptr, align 8
  %4 = alloca i64, align 8
  store ptr %0, ptr %3, align 8
  store i64 %1, ptr %4, align 8
  %5 = load ptr, ptr %3, align 8
  %6 = getelementptr inbounds %class.ciConstant, ptr %5, i32 0, i32 0
  store i8 11, ptr %6, align 8
  %7 = load i64, ptr %4, align 8
  %8 = getelementptr inbounds %class.ciConstant, ptr %5, i32 0, i32 1
  store i64 %7, ptr %8, align 8
  ret void
}

; Function Attrs: mustprogress nounwind uwtable
define linkonce_odr hidden void @_ZN10ciConstantC2E9BasicTypei(ptr noundef nonnull align 8 dereferenceable(16) %0, i8 noundef zeroext %1, i32 noundef %2) unnamed_addr #1 comdat align 2 {
  %4 = alloca ptr, align 8
  %5 = alloca i8, align 1
  %6 = alloca i32, align 4
  store ptr %0, ptr %4, align 8
  store i8 %1, ptr %5, align 1
  store i32 %2, ptr %6, align 4
  %7 = load ptr, ptr %4, align 8
  %8 = load i8, ptr %5, align 1
  %9 = getelementptr inbounds %class.ciConstant, ptr %7, i32 0, i32 0
  store i8 %8, ptr %9, align 8
  %10 = load i32, ptr %6, align 4
  %11 = getelementptr inbounds %class.ciConstant, ptr %7, i32 0, i32 1
  store i32 %10, ptr %11, align 8
  ret void
}

; Function Attrs: mustprogress nounwind uwtable
define linkonce_odr hidden noundef zeroext i16 @_ZNK5ArrayItE2atEi(ptr noundef nonnull align 4 dereferenceable(6) %0, i32 noundef %1) #1 comdat align 2 {
  %3 = alloca ptr, align 8
  %4 = alloca i32, align 4
  store ptr %0, ptr %3, align 8
  store i32 %1, ptr %4, align 4
  %5 = load ptr, ptr %3, align 8
  %6 = call noundef ptr @_ZNK5ArrayItE4dataEv(ptr noundef nonnull align 4 dereferenceable(6) %5)
  %7 = load i32, ptr %4, align 4
  %8 = sext i32 %7 to i64
  %9 = getelementptr inbounds i16, ptr %6, i64 %8
  %10 = load i16, ptr %9, align 2
  ret i16 %10
}

; Function Attrs: mustprogress nounwind uwtable
define linkonce_odr hidden noundef ptr @_ZNK12ConstantPool13reference_mapEv(ptr noundef nonnull align 8 dereferenceable(68) %0) #1 comdat align 2 {
  %2 = alloca ptr, align 8
  store ptr %0, ptr %2, align 8
  %3 = load ptr, ptr %2, align 8
  %4 = getelementptr inbounds %class.ConstantPool, ptr %3, i32 0, i32 2
  %5 = load ptr, ptr %4, align 8
  %6 = icmp eq ptr %5, null
  br i1 %6, label %7, label %8

7:                                                ; preds = %1
  br label %12

8:                                                ; preds = %1
  %9 = getelementptr inbounds %class.ConstantPool, ptr %3, i32 0, i32 2
  %10 = load ptr, ptr %9, align 8
  %11 = call noundef ptr @_ZNK17ConstantPoolCache13reference_mapEv(ptr noundef nonnull align 8 dereferenceable(64) %10)
  br label %12

12:                                               ; preds = %8, %7
  %13 = phi ptr [ null, %7 ], [ %11, %8 ]
  ret ptr %13
}

; Function Attrs: mustprogress nounwind uwtable
define linkonce_odr hidden noundef ptr @_ZNK18constantPoolHandle12non_null_objEv(ptr noundef nonnull align 8 dereferenceable(16) %0) #1 comdat align 2 {
  %2 = alloca ptr, align 8
  store ptr %0, ptr %2, align 8
  %3 = load ptr, ptr %2, align 8
  %4 = getelementptr inbounds %class.constantPoolHandle, ptr %3, i32 0, i32 0
  %5 = load ptr, ptr %4, align 8
  ret ptr %5
}

; Function Attrs: mustprogress nounwind uwtable
define hidden { i8, i64 } @_ZN5ciEnv21unbox_primitive_valueEP8ciObject9BasicType(ptr noundef nonnull align 8 dereferenceable(1265) %0, ptr noundef %1, i8 noundef zeroext %2) #1 align 2 {
  %4 = alloca %class.ciConstant, align 8
  %5 = alloca ptr, align 8
  %6 = alloca ptr, align 8
  %7 = alloca i8, align 1
  %8 = alloca %union.jvalue, align 8
  %9 = alloca i8, align 1
  store ptr %0, ptr %5, align 8
  store ptr %1, ptr %6, align 8
  store i8 %2, ptr %7, align 1
  %10 = load ptr, ptr %6, align 8
  %11 = call noundef ptr @_ZNK8ciObject7get_oopEv(ptr noundef nonnull align 8 dereferenceable(40) %10)
  %12 = call noundef zeroext i8 @_ZN23java_lang_boxing_object9get_valueEP7oopDescP6jvalue(ptr noundef %11, ptr noundef %8)
  store i8 %12, ptr %9, align 1
  %13 = load i8, ptr %9, align 1
  %14 = zext i8 %13 to i32
  %15 = load i8, ptr %7, align 1
  %16 = zext i8 %15 to i32
  %17 = icmp ne i32 %14, %16
  br i1 %17, label %18, label %23

18:                                               ; preds = %3
  %19 = load i8, ptr %7, align 1
  %20 = zext i8 %19 to i32
  %21 = icmp ne i32 %20, 99
  br i1 %21, label %22, label %23

22:                                               ; preds = %18
  call void @_ZN10ciConstantC2Ev(ptr noundef nonnull align 8 dereferenceable(16) %4)
  br label %52

23:                                               ; preds = %18, %3
  %24 = load i8, ptr %9, align 1
  %25 = zext i8 %24 to i32
  switch i32 %25, label %51 [
    i32 4, label %26
    i32 8, label %30
    i32 9, label %34
    i32 5, label %38
    i32 10, label %42
    i32 11, label %45
    i32 6, label %47
    i32 7, label %49
  ]

26:                                               ; preds = %23
  %27 = load i8, ptr %9, align 1
  %28 = load i8, ptr %8, align 8
  %29 = zext i8 %28 to i32
  call void @_ZN10ciConstantC2E9BasicTypei(ptr noundef nonnull align 8 dereferenceable(16) %4, i8 noundef zeroext %27, i32 noundef %29)
  br label %52

30:                                               ; preds = %23
  %31 = load i8, ptr %9, align 1
  %32 = load i8, ptr %8, align 8
  %33 = sext i8 %32 to i32
  call void @_ZN10ciConstantC2E9BasicTypei(ptr noundef nonnull align 8 dereferenceable(16) %4, i8 noundef zeroext %31, i32 noundef %33)
  br label %52

34:                                               ; preds = %23
  %35 = load i8, ptr %9, align 1
  %36 = load i16, ptr %8, align 8
  %37 = sext i16 %36 to i32
  call void @_ZN10ciConstantC2E9BasicTypei(ptr noundef nonnull align 8 dereferenceable(16) %4, i8 noundef zeroext %35, i32 noundef %37)
  br label %52

38:                                               ; preds = %23
  %39 = load i8, ptr %9, align 1
  %40 = load i16, ptr %8, align 8
  %41 = zext i16 %40 to i32
  call void @_ZN10ciConstantC2E9BasicTypei(ptr noundef nonnull align 8 dereferenceable(16) %4, i8 noundef zeroext %39, i32 noundef %41)
  br label %52

42:                                               ; preds = %23
  %43 = load i8, ptr %9, align 1
  %44 = load i32, ptr %8, align 8
  call void @_ZN10ciConstantC2E9BasicTypei(ptr noundef nonnull align 8 dereferenceable(16) %4, i8 noundef zeroext %43, i32 noundef %44)
  br label %52

45:                                               ; preds = %23
  %46 = load i64, ptr %8, align 8
  call void @_ZN10ciConstantC2El(ptr noundef nonnull align 8 dereferenceable(16) %4, i64 noundef %46)
  br label %52

47:                                               ; preds = %23
  %48 = load float, ptr %8, align 8
  call void @_ZN10ciConstantC2Ef(ptr noundef nonnull align 8 dereferenceable(16) %4, float noundef %48)
  br label %52

49:                                               ; preds = %23
  %50 = load double, ptr %8, align 8
  call void @_ZN10ciConstantC2Ed(ptr noundef nonnull align 8 dereferenceable(16) %4, double noundef %50)
  br label %52

51:                                               ; preds = %23
  call void @_ZN10ciConstantC2Ev(ptr noundef nonnull align 8 dereferenceable(16) %4)
  br label %52

52:                                               ; preds = %51, %49, %47, %45, %42, %38, %34, %30, %26, %22
  %53 = load { i8, i64 }, ptr %4, align 8
  ret { i8, i64 } %53
}

; Function Attrs: mustprogress nounwind uwtable
define linkonce_odr hidden noundef zeroext i1 @_Z17is_java_primitive9BasicType(i8 noundef zeroext %0) #1 comdat {
  %2 = alloca i8, align 1
  store i8 %0, ptr %2, align 1
  %3 = load i8, ptr %2, align 1
  %4 = zext i8 %3 to i32
  %5 = icmp sle i32 4, %4
  br i1 %5, label %6, label %10

6:                                                ; preds = %1
  %7 = load i8, ptr %2, align 1
  %8 = zext i8 %7 to i32
  %9 = icmp sle i32 %8, 11
  br label %10

10:                                               ; preds = %6, %1
  %11 = phi i1 [ false, %1 ], [ %9, %6 ]
  ret i1 %11
}

; Function Attrs: mustprogress nounwind uwtable
define linkonce_odr hidden noundef i32 @_ZN12ConstantPool18object_to_cp_indexEi(ptr noundef nonnull align 8 dereferenceable(68) %0, i32 noundef %1) #1 comdat align 2 {
  %3 = alloca ptr, align 8
  %4 = alloca i32, align 4
  store ptr %0, ptr %3, align 8
  store i32 %1, ptr %4, align 4
  %5 = load ptr, ptr %3, align 8
  %6 = call noundef ptr @_ZNK12ConstantPool13reference_mapEv(ptr noundef nonnull align 8 dereferenceable(68) %5)
  %7 = load i32, ptr %4, align 4
  %8 = call noundef zeroext i16 @_ZNK5ArrayItE2atEi(ptr noundef nonnull align 4 dereferenceable(6) %6, i32 noundef %7)
  %9 = zext i16 %8 to i32
  ret i32 %9
}

; Function Attrs: mustprogress nounwind uwtable
define linkonce_odr hidden void @_ZN10ciConstantC2E9BasicTypeP8ciObject(ptr noundef nonnull align 8 dereferenceable(16) %0, i8 noundef zeroext %1, ptr noundef %2) unnamed_addr #1 comdat align 2 {
  %4 = alloca ptr, align 8
  %5 = alloca i8, align 1
  %6 = alloca ptr, align 8
  store ptr %0, ptr %4, align 8
  store i8 %1, ptr %5, align 1
  store ptr %2, ptr %6, align 8
  %7 = load ptr, ptr %4, align 8
  %8 = load i8, ptr %5, align 1
  %9 = getelementptr inbounds %class.ciConstant, ptr %7, i32 0, i32 0
  store i8 %8, ptr %9, align 8
  %10 = load ptr, ptr %6, align 8
  %11 = getelementptr inbounds %class.ciConstant, ptr %7, i32 0, i32 1
  store ptr %10, ptr %11, align 8
  ret void
}

; Function Attrs: mustprogress nounwind uwtable
define linkonce_odr hidden noundef ptr @_ZN5ciEnv10get_objectEP7oopDesc(ptr noundef nonnull align 8 dereferenceable(1265) %0, ptr noundef %1) #1 comdat align 2 {
  %3 = alloca ptr, align 8
  %4 = alloca ptr, align 8
  %5 = alloca ptr, align 8
  store ptr %0, ptr %4, align 8
  store ptr %1, ptr %5, align 8
  %6 = load ptr, ptr %4, align 8
  %7 = load ptr, ptr %5, align 8
  %8 = icmp eq ptr %7, null
  br i1 %8, label %9, label %11

9:                                                ; preds = %2
  %10 = load ptr, ptr @_ZN5ciEnv21_null_object_instanceE, align 8
  store ptr %10, ptr %3, align 8
  br label %16

11:                                               ; preds = %2
  %12 = getelementptr inbounds %class.ciEnv, ptr %6, i32 0, i32 2
  %13 = load ptr, ptr %12, align 8
  %14 = load ptr, ptr %5, align 8
  %15 = call noundef ptr @_ZN15ciObjectFactory3getEP7oopDesc(ptr noundef nonnull align 8 dereferenceable(652) %13, ptr noundef %14)
  store ptr %15, ptr %3, align 8
  br label %16

16:                                               ; preds = %11, %9
  %17 = load ptr, ptr %3, align 8
  ret ptr %17
}

; Function Attrs: mustprogress nounwind uwtable
define linkonce_odr hidden void @_ZN10ciConstantC2Ev(ptr noundef nonnull align 8 dereferenceable(16) %0) unnamed_addr #1 comdat align 2 {
  %2 = alloca ptr, align 8
  store ptr %0, ptr %2, align 8
  %3 = load ptr, ptr %2, align 8
  %4 = getelementptr inbounds %class.ciConstant, ptr %3, i32 0, i32 0
  store i8 99, ptr %4, align 8
  %5 = getelementptr inbounds %class.ciConstant, ptr %3, i32 0, i32 1
  store i64 -1, ptr %5, align 8
  ret void
}

; Function Attrs: mustprogress nounwind uwtable
define linkonce_odr hidden noundef ptr @_ZNK18constantPoolHandleptEv(ptr noundef nonnull align 8 dereferenceable(16) %0) #1 comdat align 2 {
  %2 = alloca ptr, align 8
  store ptr %0, ptr %2, align 8
  %3 = load ptr, ptr %2, align 8
  %4 = call noundef ptr @_ZNK18constantPoolHandle12non_null_objEv(ptr noundef nonnull align 8 dereferenceable(16) %3)
  ret ptr %4
}

; Function Attrs: mustprogress nounwind uwtable
define hidden { i8, i64 } @_ZN5ciEnv21get_resolved_constantERK18constantPoolHandlei(ptr noundef nonnull align 8 dereferenceable(1265) %0, ptr noundef nonnull align 8 dereferenceable(16) %1, i32 noundef %2) #1 align 2 {
  %4 = alloca %class.ciConstant, align 8
  %5 = alloca ptr, align 8
  %6 = alloca ptr, align 8
  %7 = alloca i32, align 4
  %8 = alloca ptr, align 8
  %9 = alloca ptr, align 8
  %10 = alloca i32, align 4
  %11 = alloca i8, align 1
  store ptr %0, ptr %5, align 8
  store ptr %1, ptr %6, align 8
  store i32 %2, ptr %7, align 4
  %12 = load ptr, ptr %5, align 8
  %13 = load ptr, ptr %6, align 8
  %14 = call noundef ptr @_ZNK18constantPoolHandleptEv(ptr noundef nonnull align 8 dereferenceable(16) %13)
  %15 = load i32, ptr %7, align 4
  %16 = call noundef ptr @_ZNK12ConstantPool21resolved_reference_atEi(ptr noundef nonnull align 8 dereferenceable(68) %14, i32 noundef %15)
  store ptr %16, ptr %8, align 8
  %17 = load ptr, ptr %8, align 8
  %18 = icmp eq ptr %17, null
  br i1 %18, label %19, label %20

19:                                               ; preds = %3
  call void @_ZN10ciConstantC2Ev(ptr noundef nonnull align 8 dereferenceable(16) %4)
  br label %57

20:                                               ; preds = %3
  %21 = load ptr, ptr %8, align 8
  %22 = call noundef ptr @_ZN8Universe17the_null_sentinelEv()
  %23 = icmp eq ptr %21, %22
  br i1 %23, label %24, label %26

24:                                               ; preds = %20
  %25 = call noundef ptr @_ZN5ciEnv10get_objectEP7oopDesc(ptr noundef nonnull align 8 dereferenceable(1265) %12, ptr noundef null)
  call void @_ZN10ciConstantC2E9BasicTypeP8ciObject(ptr noundef nonnull align 8 dereferenceable(16) %4, i8 noundef zeroext 12, ptr noundef %25)
  br label %57

26:                                               ; preds = %20
  %27 = load ptr, ptr %8, align 8
  %28 = call noundef ptr @_ZN5ciEnv10get_objectEP7oopDesc(ptr noundef nonnull align 8 dereferenceable(1265) %12, ptr noundef %27)
  store ptr %28, ptr %9, align 8
  %29 = load ptr, ptr %9, align 8
  %30 = load ptr, ptr %29, align 8
  %31 = getelementptr inbounds ptr, ptr %30, i64 11
  %32 = load ptr, ptr %31, align 8
  %33 = call noundef zeroext i1 %32(ptr noundef nonnull align 8 dereferenceable(40) %29)
  br i1 %33, label %34, label %36

34:                                               ; preds = %26
  %35 = load ptr, ptr %9, align 8
  call void @_ZN10ciConstantC2E9BasicTypeP8ciObject(ptr noundef nonnull align 8 dereferenceable(16) %4, i8 noundef zeroext 13, ptr noundef %35)
  br label %57

36:                                               ; preds = %26
  %37 = load ptr, ptr %6, align 8
  %38 = call noundef ptr @_ZNK18constantPoolHandleptEv(ptr noundef nonnull align 8 dereferenceable(16) %37)
  %39 = load i32, ptr %7, align 4
  %40 = call noundef i32 @_ZN12ConstantPool18object_to_cp_indexEi(ptr noundef nonnull align 8 dereferenceable(68) %38, i32 noundef %39)
  store i32 %40, ptr %10, align 4
  %41 = load ptr, ptr %6, align 8
  %42 = call noundef ptr @_ZNK18constantPoolHandleptEv(ptr noundef nonnull align 8 dereferenceable(16) %41)
  %43 = load i32, ptr %10, align 4
  %44 = call noundef zeroext i8 @_ZN12ConstantPool26basic_type_for_constant_atEi(ptr noundef nonnull align 8 dereferenceable(68) %42, i32 noundef %43)
  store i8 %44, ptr %11, align 1
  %45 = load i8, ptr %11, align 1
  %46 = call noundef zeroext i1 @_Z17is_java_primitive9BasicType(i8 noundef zeroext %45)
  br i1 %46, label %47, label %55

47:                                               ; preds = %36
  %48 = load ptr, ptr %9, align 8
  %49 = load i8, ptr %11, align 1
  %50 = call { i8, i64 } @_ZN5ciEnv21unbox_primitive_valueEP8ciObject9BasicType(ptr noundef nonnull align 8 dereferenceable(1265) %12, ptr noundef %48, i8 noundef zeroext %49)
  %51 = getelementptr inbounds { i8, i64 }, ptr %4, i32 0, i32 0
  %52 = extractvalue { i8, i64 } %50, 0
  store i8 %52, ptr %51, align 8
  %53 = getelementptr inbounds { i8, i64 }, ptr %4, i32 0, i32 1
  %54 = extractvalue { i8, i64 } %50, 1
  store i64 %54, ptr %53, align 8
  br label %57

55:                                               ; preds = %36
  %56 = load ptr, ptr %9, align 8
  call void @_ZN10ciConstantC2E9BasicTypeP8ciObject(ptr noundef nonnull align 8 dereferenceable(16) %4, i8 noundef zeroext 12, ptr noundef %56)
  br label %57

57:                                               ; preds = %55, %47, %34, %24, %19
  %58 = load { i8, i64 }, ptr %4, align 8
  ret { i8, i64 } %58
}