; Function Attrs: mustprogress nounwind uwtable
define hidden { i8, i64 } @_ZN5ciEnv21get_resolved_constantERK18constantPoolHandlei(ptr nocapture noundef nonnull readonly align 8 dereferenceable(1265) %0, ptr nocapture noundef nonnull readonly align 8 dereferenceable(16) %1, i32 noundef %2) local_unnamed_addr #0 align 2 {
  %4 = alloca %union.jvalue, align 8
  %5 = load ptr, ptr %1, align 8
  %6 = tail call noundef ptr @_ZNK12ConstantPool21resolved_reference_atEi(ptr noundef nonnull align 8 dereferenceable(68) %5, i32 noundef %2) #18
  %7 = icmp eq ptr %6, null
  br i1 %7, label %64, label %8

8:                                                ; preds = %3
  %9 = tail call noundef ptr @_ZN8Universe17the_null_sentinelEv() #18
  %10 = icmp eq ptr %6, %9
  br i1 %10, label %11, label %_ZN5ciEnv10get_objectEP7oopDesc.exit

11:                                               ; preds = %8
  %12 = load ptr, ptr @_ZN5ciEnv21_null_object_instanceE, align 8
  %13 = ptrtoint ptr %12 to i64
  br label %64

_ZN5ciEnv10get_objectEP7oopDesc.exit:             ; preds = %8
  %14 = getelementptr inbounds i8, ptr %0, i64 56
  %15 = load ptr, ptr %14, align 8
  %16 = tail call noundef ptr @_ZN15ciObjectFactory3getEP7oopDesc(ptr noundef nonnull align 8 dereferenceable(652) %15, ptr noundef nonnull %6) #18
  %17 = load ptr, ptr %16, align 8
  %18 = getelementptr inbounds i8, ptr %17, i64 88
  %19 = load ptr, ptr %18, align 8
  %20 = tail call noundef zeroext i1 %19(ptr noundef nonnull align 8 dereferenceable(40) %16) #18
  br i1 %20, label %21, label %23

21:                                               ; preds = %_ZN5ciEnv10get_objectEP7oopDesc.exit
  %22 = ptrtoint ptr %16 to i64
  br label %64

23:                                               ; preds = %_ZN5ciEnv10get_objectEP7oopDesc.exit
  %24 = load ptr, ptr %1, align 8
  %25 = getelementptr inbounds i8, ptr %24, i64 16
  %26 = load ptr, ptr %25, align 8, !nonnull !10, !noundef !10
  %27 = getelementptr inbounds i8, ptr %26, i64 24
  %28 = load ptr, ptr %27, align 8
  %29 = getelementptr inbounds i8, ptr %28, i64 4
  %30 = sext i32 %2 to i64
  %31 = getelementptr inbounds i16, ptr %29, i64 %30
  %32 = load i16, ptr %31, align 2
  %33 = zext i16 %32 to i32
  %34 = tail call noundef zeroext i8 @_ZN12ConstantPool26basic_type_for_constant_atEi(ptr noundef nonnull align 8 dereferenceable(68) %24, i32 noundef %33) #18
  %35 = add i8 %34, -4
  %36 = icmp ult i8 %35, 8
  br i1 %36, label %37, label %62

37:                                               ; preds = %23
  call void @llvm.lifetime.start.p0(i64 8, ptr nonnull %4)
  %38 = tail call noundef ptr @_ZNK8ciObject7get_oopEv(ptr noundef nonnull align 8 dereferenceable(40) %16) #18
  %39 = call noundef zeroext i8 @_ZN23java_lang_boxing_object9get_valueEP7oopDescP6jvalue(ptr noundef %38, ptr noundef nonnull %4) #18
  %.not = icmp eq i8 %39, %34
  br i1 %.not, label %40, label %_ZN5ciEnv21unbox_primitive_valueEP8ciObject9BasicType.exit

40:                                               ; preds = %37
  switch i8 %34, label %default.unreachable [
    i8 4, label %41
    i8 8, label %44
    i8 9, label %47
    i8 5, label %50
    i8 10, label %53
    i8 11, label %55
    i8 6, label %58
    i8 7, label %60
  ]

41:                                               ; preds = %40
  %42 = load i8, ptr %4, align 8
  %43 = zext i8 %42 to i32
  br label %_ZN5ciEnv21unbox_primitive_valueEP8ciObject9BasicType.exit

44:                                               ; preds = %40
  %45 = load i8, ptr %4, align 8
  %46 = sext i8 %45 to i32
  br label %_ZN5ciEnv21unbox_primitive_valueEP8ciObject9BasicType.exit

47:                                               ; preds = %40
  %48 = load i16, ptr %4, align 8
  %49 = sext i16 %48 to i32
  br label %_ZN5ciEnv21unbox_primitive_valueEP8ciObject9BasicType.exit

50:                                               ; preds = %40
  %51 = load i16, ptr %4, align 8
  %52 = zext i16 %51 to i32
  br label %_ZN5ciEnv21unbox_primitive_valueEP8ciObject9BasicType.exit

53:                                               ; preds = %40
  %54 = load i32, ptr %4, align 8
  br label %_ZN5ciEnv21unbox_primitive_valueEP8ciObject9BasicType.exit

55:                                               ; preds = %40
  %56 = load i32, ptr %4, align 8
  %.sroa_idx.i = getelementptr inbounds i8, ptr %4, i64 4
  %57 = load i32, ptr %.sroa_idx.i, align 4
  br label %_ZN5ciEnv21unbox_primitive_valueEP8ciObject9BasicType.exit

58:                                               ; preds = %40
  %59 = load i32, ptr %4, align 8
  br label %_ZN5ciEnv21unbox_primitive_valueEP8ciObject9BasicType.exit

60:                                               ; preds = %40
  %61 = load i64, ptr %4, align 8
  %.sroa.11.sroa.0.0.extract.trunc.i = trunc i64 %61 to i32
  %.sroa.11.sroa.11.0.extract.shift.i = lshr i64 %61, 32
  %.sroa.11.sroa.11.0.extract.trunc.i = trunc nuw i64 %.sroa.11.sroa.11.0.extract.shift.i to i32
  br label %_ZN5ciEnv21unbox_primitive_valueEP8ciObject9BasicType.exit

default.unreachable:                              ; preds = %40
  unreachable

_ZN5ciEnv21unbox_primitive_valueEP8ciObject9BasicType.exit: ; preds = %37, %41, %44, %47, %50, %53, %55, %58, %60
  %.sroa.11.sroa.11.0.i = phi i32 [ %.sroa.11.sroa.11.0.extract.trunc.i, %60 ], [ undef, %58 ], [ %57, %55 ], [ undef, %53 ], [ undef, %50 ], [ undef, %47 ], [ undef, %44 ], [ undef, %41 ], [ -1, %37 ]
  %.sroa.11.sroa.0.0.i = phi i32 [ %.sroa.11.sroa.0.0.extract.trunc.i, %60 ], [ %59, %58 ], [ %56, %55 ], [ %54, %53 ], [ %52, %50 ], [ %49, %47 ], [ %46, %44 ], [ %43, %41 ], [ -1, %37 ]
  %.sroa.0.0.i = phi i8 [ 7, %60 ], [ 6, %58 ], [ 11, %55 ], [ 10, %53 ], [ 5, %50 ], [ 9, %47 ], [ 8, %44 ], [ 4, %41 ], [ 99, %37 ]
  %.sroa.11.sroa.11.0.insert.ext.i = zext i32 %.sroa.11.sroa.11.0.i to i64
  %.sroa.11.sroa.11.0.insert.shift.i = shl nuw i64 %.sroa.11.sroa.11.0.insert.ext.i, 32
  %.sroa.11.sroa.0.0.insert.ext.i = zext i32 %.sroa.11.sroa.0.0.i to i64
  %.sroa.11.sroa.0.0.insert.insert.i = or disjoint i64 %.sroa.11.sroa.11.0.insert.shift.i, %.sroa.11.sroa.0.0.insert.ext.i
  call void @llvm.lifetime.end.p0(i64 8, ptr nonnull %4)
  br label %64

62:                                               ; preds = %23
  %63 = ptrtoint ptr %16 to i64
  br label %64

64:                                               ; preds = %3, %62, %_ZN5ciEnv21unbox_primitive_valueEP8ciObject9BasicType.exit, %21, %11
  %.sroa.6.0 = phi i64 [ %13, %11 ], [ %22, %21 ], [ %.sroa.11.sroa.0.0.insert.insert.i, %_ZN5ciEnv21unbox_primitive_valueEP8ciObject9BasicType.exit ], [ %63, %62 ], [ -1, %3 ]
  %.sroa.0.0 = phi i8 [ 12, %11 ], [ 13, %21 ], [ %.sroa.0.0.i, %_ZN5ciEnv21unbox_primitive_valueEP8ciObject9BasicType.exit ], [ 12, %62 ], [ 99, %3 ]
  %.fca.0.insert = insertvalue { i8, i64 } poison, i8 %.sroa.0.0, 0
  %.fca.1.insert = insertvalue { i8, i64 } %.fca.0.insert, i64 %.sroa.6.0, 1
  ret { i8, i64 } %.fca.1.insert
}